target datalayout = "e-m:e-p270:32:32-p271:32:32-p272:64:64-i64:64-i128:128-f80:128-n8:16:32:64-S128"
target triple = "x86_64-pc-linux-gnu"

%struct.UCharIterator = type { ptr, i32, i32, i32, i32, i32, ptr, ptr, ptr, ptr, ptr, ptr, ptr, ptr, ptr, ptr }

; Function Attrs: mustprogress nounwind uwtable
define internal noundef i32 @_ZL21stringIteratorCurrentP13UCharIterator(ptr noundef %0) #3 {
  %2 = alloca i32, align 4
  %3 = alloca ptr, align 8
  store ptr %0, ptr %3, align 8, !tbaa !3
  %4 = load ptr, ptr %3, align 8, !tbaa !3
  %5 = getelementptr inbounds nuw %struct.UCharIterator, ptr %4, i32 0, i32 3
  %6 = load i32, ptr %5, align 8, !tbaa !40
  %7 = load ptr, ptr %3, align 8, !tbaa !3
  %8 = getelementptr inbounds nuw %struct.UCharIterator, ptr %7, i32 0, i32 4
  %9 = load i32, ptr %8, align 4, !tbaa !17
  %10 = icmp slt i32 %6, %9
  br i1 %10, label %11, label %22

11:                                               ; preds = %1
  %12 = load ptr, ptr %3, align 8, !tbaa !3
  %13 = getelementptr inbounds nuw %struct.UCharIterator, ptr %12, i32 0, i32 0
  %14 = load ptr, ptr %13, align 8, !tbaa !14
  %15 = load ptr, ptr %3, align 8, !tbaa !3
  %16 = getelementptr inbounds nuw %struct.UCharIterator, ptr %15, i32 0, i32 3
  %17 = load i32, ptr %16, align 8, !tbaa !40
  %18 = sext i32 %17 to i64
  %19 = getelementptr inbounds i16, ptr %14, i64 %18
  %20 = load i16, ptr %19, align 2, !tbaa !41
  %21 = zext i16 %20 to i32
  store i32 %21, ptr %2, align 4
  br label %23

22:                                               ; preds = %1
  store i32 -1, ptr %2, align 4
  br label %23

23:                                               ; preds = %22, %11
  %24 = load i32, ptr %2, align 4
  ret i32 %24
}