; Function Attrs: mustprogress nofree norecurse nosync nounwind willreturn memory(read, inaccessiblemem: none) uwtable
define internal noundef range(i32 -1, 65536) i32 @_ZL21stringIteratorCurrentP13UCharIterator(ptr noundef readonly captures(none) %0) #8 {
  %2 = getelementptr inbounds nuw i8, ptr %0, i64 16
  %3 = load i32, ptr %2, align 8, !tbaa !28
  %4 = getelementptr inbounds nuw i8, ptr %0, i64 20
  %5 = load i32, ptr %4, align 4, !tbaa !13
  %6 = icmp slt i32 %3, %5
  br i1 %6, label %7, label %13

7:                                                ; preds = %1
  %8 = load ptr, ptr %0, align 8, !tbaa !10
  %9 = sext i32 %3 to i64
  %10 = getelementptr inbounds i16, ptr %8, i64 %9
  %11 = load i16, ptr %10, align 2, !tbaa !29
  %12 = zext i16 %11 to i32
  br label %13

13:                                               ; preds = %1, %7
  %.0 = phi i32 [ %12, %7 ], [ -1, %1 ]
  ret i32 %.0
}